target datalayout = "e-m:e-p270:32:32-p271:32:32-p272:64:64-i64:64-i128:128-f80:128-n8:16:32:64-S128"
target triple = "x86_64-pc-linux-gnu"

%struct.SynthFilterContext = type { ptr, ptr, ptr, ptr }

; Function Attrs: cold nounwind optsize uwtable
define void @ff_synth_filter_init(ptr noundef %0) #0 {
  %2 = alloca ptr, align 8
  store ptr %0, ptr %2, align 8, !tbaa !4
  %3 = load ptr, ptr %2, align 8, !tbaa !4
  %4 = getelementptr inbounds nuw %struct.SynthFilterContext, ptr %3, i32 0, i32 0
  store ptr @synth_filter_float, ptr %4, align 8, !tbaa !9
  %5 = load ptr, ptr %2, align 8, !tbaa !4
  %6 = getelementptr inbounds nuw %struct.SynthFilterContext, ptr %5, i32 0, i32 1
  store ptr @synth_filter_float_64, ptr %6, align 8, !tbaa !11
  %7 = load ptr, ptr %2, align 8, !tbaa !4
  %8 = getelementptr inbounds nuw %struct.SynthFilterContext, ptr %7, i32 0, i32 2
  store ptr @synth_filter_fixed, ptr %8, align 8, !tbaa !12
  %9 = load ptr, ptr %2, align 8, !tbaa !4
  %10 = getelementptr inbounds nuw %struct.SynthFilterContext, ptr %9, i32 0, i32 3
  store ptr @synth_filter_fixed_64, ptr %10, align 8, !tbaa !13
  ret void
}